; Function Attrs: mustprogress nofree norecurse nosync nounwind ssp willreturn memory(argmem: readwrite) uwtable
define internal fastcc void @fe25519_mul(ptr noundef writeonly captures(none) initializes((0, 40)) %0, ptr noundef readonly captures(none) %1, ptr noundef readonly captures(none) %2) unnamed_addr #0 {
  %4 = load i64, ptr %1, align 8
  %5 = zext i64 %4 to i128
  %6 = getelementptr i8, ptr %1, i64 8
  %7 = load i64, ptr %6, align 8
  %8 = zext i64 %7 to i128
  %9 = getelementptr i8, ptr %1, i64 16
  %10 = load i64, ptr %9, align 8
  %11 = zext i64 %10 to i128
  %12 = getelementptr i8, ptr %1, i64 24
  %13 = load i64, ptr %12, align 8
  %14 = zext i64 %13 to i128
  %15 = getelementptr i8, ptr %1, i64 32
  %16 = load i64, ptr %15, align 8
  %17 = zext i64 %16 to i128
  %18 = load i64, ptr %2, align 8
  %19 = zext i64 %18 to i128
  %20 = getelementptr i8, ptr %2, i64 8
  %21 = load i64, ptr %20, align 8
  %22 = zext i64 %21 to i128
  %23 = getelementptr i8, ptr %2, i64 16
  %24 = load i64, ptr %23, align 8
  %25 = zext i64 %24 to i128
  %26 = getelementptr i8, ptr %2, i64 24
  %27 = load i64, ptr %26, align 8
  %28 = zext i64 %27 to i128
  %29 = getelementptr i8, ptr %2, i64 32
  %30 = load i64, ptr %29, align 8
  %31 = zext i64 %30 to i128
  %32 = mul nuw nsw i128 %8, 19
  %33 = mul nuw nsw i128 %11, 19
  %34 = mul nuw nsw i128 %14, 19
  %35 = mul nuw nsw i128 %17, 19
  %36 = mul nuw i128 %19, %5
  %37 = mul i128 %32, %31
  %38 = mul i128 %33, %28
  %39 = mul i128 %34, %25
  %40 = mul i128 %35, %22
  %41 = add i128 %40, %36
  %42 = add i128 %41, %39
  %43 = add i128 %42, %38
  %44 = add i128 %43, %37
  %45 = mul nuw i128 %22, %5
  %46 = mul nuw i128 %19, %8
  %47 = add i128 %45, %46
  %48 = mul i128 %33, %31
  %49 = mul i128 %34, %28
  %50 = mul i128 %35, %25
  %51 = mul nuw i128 %25, %5
  %52 = mul nuw i128 %22, %8
  %53 = mul nuw i128 %19, %11
  %54 = mul i128 %34, %31
  %55 = mul i128 %35, %28
  %56 = mul nuw i128 %28, %5
  %57 = mul nuw i128 %25, %8
  %58 = mul nuw i128 %22, %11
  %59 = mul nuw i128 %19, %14
  %60 = mul i128 %35, %31
  %61 = mul nuw i128 %31, %5
  %62 = mul nuw i128 %28, %8
  %63 = mul nuw i128 %25, %11
  %64 = mul nuw i128 %22, %14
  %65 = mul nuw i128 %19, %17
  %66 = trunc i128 %44 to i64
  %67 = and i64 %66, 2251799813685247
  %68 = lshr i128 %44, 51
  %69 = and i128 %68, 18446744073709551615
  %70 = add i128 %47, %50
  %71 = add i128 %70, %49
  %72 = add i128 %71, %48
  %73 = add i128 %72, %69
  %74 = trunc i128 %73 to i64
  %75 = and i64 %74, 2251799813685247
  %76 = lshr i128 %73, 51
  %77 = and i128 %76, 18446744073709551615
  %78 = add i128 %52, %53
  %79 = add i128 %78, %51
  %80 = add i128 %79, %55
  %81 = add i128 %80, %54
  %82 = add i128 %81, %77
  %83 = trunc i128 %82 to i64
  %84 = and i64 %83, 2251799813685247
  %85 = lshr i128 %82, 51
  %86 = and i128 %85, 18446744073709551615
  %87 = add i128 %58, %59
  %88 = add i128 %87, %57
  %89 = add i128 %88, %56
  %90 = add i128 %89, %60
  %91 = add i128 %90, %86
  %92 = trunc i128 %91 to i64
  %93 = and i64 %92, 2251799813685247
  %94 = lshr i128 %91, 51
  %95 = and i128 %94, 18446744073709551615
  %96 = add i128 %64, %65
  %97 = add i128 %96, %63
  %98 = add i128 %97, %62
  %99 = add i128 %98, %61
  %100 = add i128 %99, %95
  %101 = trunc i128 %100 to i64
  %102 = and i64 %101, 2251799813685247
  %103 = lshr i128 %100, 51
  %104 = trunc i128 %103 to i64
  %105 = mul i64 %104, 19
  %106 = add i64 %105, %67
  %107 = lshr i64 %106, 51
  %108 = and i64 %106, 2251799813685247
  %109 = add nuw nsw i64 %107, %75
  %110 = lshr i64 %109, 51
  %111 = and i64 %109, 2251799813685247
  %112 = add nuw nsw i64 %110, %84
  store i64 %108, ptr %0, align 8
  %113 = getelementptr i8, ptr %0, i64 8
  store i64 %111, ptr %113, align 8
  %114 = getelementptr i8, ptr %0, i64 16
  store i64 %112, ptr %114, align 8
  %115 = getelementptr i8, ptr %0, i64 24
  store i64 %93, ptr %115, align 8
  %116 = getelementptr i8, ptr %0, i64 32
  store i64 %102, ptr %116, align 8
  ret void
}